target datalayout = "e-m:e-p270:32:32-p271:32:32-p272:64:64-i64:64-i128:128-f80:128-n8:16:32:64-S128"
target triple = "x86_64-pc-linux-gnu"

%struct.DdManager = type { %struct.DdNode, ptr, ptr, ptr, ptr, ptr, ptr, ptr, i32, i32, double, double, double, i32, i32, i32, i32, i32, i32, ptr, ptr, %struct.DdSubtable, i32, i32, i32, i32, i32, i32, i32, double, i32, i32, i32, ptr, i64, double, i32, ptr, ptr, ptr, ptr, ptr, ptr, ptr, i32, ptr, ptr, ptr, ptr, ptr, ptr, i32, i32, i32, double, i32, i32, i32, i32, double, double, i32, i32, i32, i32, i32, i32, i32, i32, i32, ptr, ptr, i32, i32, i32, i32, i32, i32, ptr, ptr, ptr, ptr, ptr, ptr, ptr, ptr, i32, i64, i64, i64, i32, i64, i64, double, double, double, double, double, double, i32, ptr, ptr, i64 }
%struct.DdNode = type { i32, i32, ptr, %union.anon, i64 }
%union.anon = type { %struct.DdChildren }
%struct.DdChildren = type { ptr, ptr }
%struct.DdSubtable = type { ptr, i32, i32, i32, i32, i32, i32, i32, i32, i32, i32, i32 }

; Function Attrs: nounwind uwtable
define ptr @Extra_bddBitsToCube(ptr noundef %0, i32 noundef %1, i32 noundef %2, ptr noundef %3, i32 noundef %4) #0 {
  %6 = alloca ptr, align 8
  %7 = alloca i32, align 4
  %8 = alloca i32, align 4
  %9 = alloca ptr, align 8
  %10 = alloca i32, align 4
  %11 = alloca i32, align 4
  %12 = alloca ptr, align 8
  %13 = alloca ptr, align 8
  %14 = alloca ptr, align 8
  %15 = alloca ptr, align 8
  store ptr %0, ptr %6, align 8, !tbaa !3
  store i32 %1, ptr %7, align 4, !tbaa !37
  store i32 %2, ptr %8, align 4, !tbaa !37
  store ptr %3, ptr %9, align 8, !tbaa !56
  store i32 %4, ptr %10, align 4, !tbaa !37
  call void @llvm.lifetime.start.p0(i64 4, ptr %11) #10
  call void @llvm.lifetime.start.p0(i64 8, ptr %12) #10
  call void @llvm.lifetime.start.p0(i64 8, ptr %13) #10
  call void @llvm.lifetime.start.p0(i64 8, ptr %14) #10
  call void @llvm.lifetime.start.p0(i64 8, ptr %15) #10
  %16 = load ptr, ptr %6, align 8, !tbaa !3
  %17 = getelementptr inbounds nuw %struct.DdManager, ptr %16, i32 0, i32 1
  %18 = load ptr, ptr %17, align 8, !tbaa !41
  store ptr %18, ptr %15, align 8, !tbaa !8
  %19 = load ptr, ptr %15, align 8, !tbaa !8
  call void @Cudd_Ref(ptr noundef %19)
  store i32 0, ptr %11, align 4, !tbaa !37
  br label %20

20:                                               ; preds = %80, %5
  %21 = load i32, ptr %11, align 4, !tbaa !37
  %22 = load i32, ptr %8, align 4, !tbaa !37
  %23 = icmp slt i32 %21, %22
  br i1 %23, label %24, label %83

24:                                               ; preds = %20
  %25 = load ptr, ptr %9, align 8, !tbaa !56
  %26 = icmp ne ptr %25, null
  br i1 %26, label %27, label %33

27:                                               ; preds = %24
  %28 = load ptr, ptr %9, align 8, !tbaa !56
  %29 = load i32, ptr %11, align 4, !tbaa !37
  %30 = sext i32 %29 to i64
  %31 = getelementptr inbounds ptr, ptr %28, i64 %30
  %32 = load ptr, ptr %31, align 8, !tbaa !8
  br label %41

33:                                               ; preds = %24
  %34 = load ptr, ptr %6, align 8, !tbaa !3
  %35 = getelementptr inbounds nuw %struct.DdManager, ptr %34, i32 0, i32 41
  %36 = load ptr, ptr %35, align 8, !tbaa !45
  %37 = load i32, ptr %11, align 4, !tbaa !37
  %38 = sext i32 %37 to i64
  %39 = getelementptr inbounds ptr, ptr %36, i64 %38
  %40 = load ptr, ptr %39, align 8, !tbaa !8
  br label %41

41:                                               ; preds = %33, %27
  %42 = phi ptr [ %32, %27 ], [ %40, %33 ]
  store ptr %42, ptr %14, align 8, !tbaa !8
  %43 = load i32, ptr %10, align 4, !tbaa !37
  %44 = icmp ne i32 %43, 0
  br i1 %44, label %45, label %60

45:                                               ; preds = %41
  %46 = load ptr, ptr %14, align 8, !tbaa !8
  %47 = ptrtoint ptr %46 to i64
  %48 = load i32, ptr %7, align 4, !tbaa !37
  %49 = load i32, ptr %8, align 4, !tbaa !37
  %50 = sub nsw i32 %49, 1
  %51 = load i32, ptr %11, align 4, !tbaa !37
  %52 = sub nsw i32 %50, %51
  %53 = shl i32 1, %52
  %54 = and i32 %48, %53
  %55 = icmp eq i32 %54, 0
  %56 = zext i1 %55 to i32
  %57 = sext i32 %56 to i64
  %58 = xor i64 %47, %57
  %59 = inttoptr i64 %58 to ptr
  store ptr %59, ptr %13, align 8, !tbaa !8
  br label %72

60:                                               ; preds = %41
  %61 = load ptr, ptr %14, align 8, !tbaa !8
  %62 = ptrtoint ptr %61 to i64
  %63 = load i32, ptr %7, align 4, !tbaa !37
  %64 = load i32, ptr %11, align 4, !tbaa !37
  %65 = shl i32 1, %64
  %66 = and i32 %63, %65
  %67 = icmp eq i32 %66, 0
  %68 = zext i1 %67 to i32
  %69 = sext i32 %68 to i64
  %70 = xor i64 %62, %69
  %71 = inttoptr i64 %70 to ptr
  store ptr %71, ptr %13, align 8, !tbaa !8
  br label %72

72:                                               ; preds = %60, %45
  %73 = load ptr, ptr %6, align 8, !tbaa !3
  %74 = load ptr, ptr %15, align 8, !tbaa !8
  store ptr %74, ptr %12, align 8, !tbaa !8
  %75 = load ptr, ptr %13, align 8, !tbaa !8
  %76 = call ptr @Cudd_bddAnd(ptr noundef %73, ptr noundef %74, ptr noundef %75)
  store ptr %76, ptr %15, align 8, !tbaa !8
  %77 = load ptr, ptr %15, align 8, !tbaa !8
  call void @Cudd_Ref(ptr noundef %77)
  %78 = load ptr, ptr %6, align 8, !tbaa !3
  %79 = load ptr, ptr %12, align 8, !tbaa !8
  call void @Cudd_RecursiveDeref(ptr noundef %78, ptr noundef %79)
  br label %80

80:                                               ; preds = %72
  %81 = load i32, ptr %11, align 4, !tbaa !37
  %82 = add nsw i32 %81, 1
  store i32 %82, ptr %11, align 4, !tbaa !37
  br label %20, !llvm.loop !67

83:                                               ; preds = %20
  %84 = load ptr, ptr %15, align 8, !tbaa !8
  call void @Cudd_Deref(ptr noundef %84)
  %85 = load ptr, ptr %15, align 8, !tbaa !8
  call void @llvm.lifetime.end.p0(i64 8, ptr %15) #10
  call void @llvm.lifetime.end.p0(i64 8, ptr %14) #10
  call void @llvm.lifetime.end.p0(i64 8, ptr %13) #10
  call void @llvm.lifetime.end.p0(i64 8, ptr %12) #10
  call void @llvm.lifetime.end.p0(i64 4, ptr %11) #10
  ret ptr %85
}