; Function Attrs: nounwind uwtable
define noundef ptr @Extra_bddBitsToCube(ptr noundef %0, i32 noundef %1, i32 noundef %2, ptr noundef readonly %3, i32 noundef %4) local_unnamed_addr #0 {
  %6 = getelementptr inbounds nuw i8, ptr %0, i64 40
  %7 = load ptr, ptr %6, align 8, !tbaa !34
  tail call void @Cudd_Ref(ptr noundef %7) #19
  %8 = icmp sgt i32 %2, 0
  br i1 %8, label %.lr.ph, label %._crit_edge

.lr.ph:                                           ; preds = %5
  %.not = icmp eq ptr %3, null
  %9 = getelementptr inbounds nuw i8, ptr %0, i64 344
  %.not29 = icmp eq i32 %4, 0
  %10 = xor i32 %1, -1
  %wide.trip.count59 = zext nneg i32 %2 to i64
  br i1 %.not29, label %.lr.ph.split.us, label %.lr.ph.split

.lr.ph.split.us:                                  ; preds = %.lr.ph
  br i1 %.not, label %.lr.ph.split.us.split.us, label %.lr.ph.split.us.split

.lr.ph.split.us.split.us:                         ; preds = %.lr.ph.split.us, %.lr.ph.split.us.split.us
  %indvars.iv56 = phi i64 [ %indvars.iv.next57, %.lr.ph.split.us.split.us ], [ 0, %.lr.ph.split.us ]
  %.031.us.us = phi ptr [ %20, %.lr.ph.split.us.split.us ], [ %7, %.lr.ph.split.us ]
  %11 = load ptr, ptr %9, align 8, !tbaa !38
  %12 = getelementptr inbounds nuw ptr, ptr %11, i64 %indvars.iv56
  %13 = load ptr, ptr %12, align 8, !tbaa !25
  %14 = ptrtoint ptr %13 to i64
  %15 = trunc nuw nsw i64 %indvars.iv56 to i32
  %16 = lshr i32 %10, %15
  %17 = and i32 %16, 1
  %18 = zext nneg i32 %17 to i64
  %19 = xor i64 %14, %18
  %.026.us.us = inttoptr i64 %19 to ptr
  %20 = tail call ptr @Cudd_bddAnd(ptr noundef nonnull %0, ptr noundef %.031.us.us, ptr noundef %.026.us.us) #19
  tail call void @Cudd_Ref(ptr noundef %20) #19
  tail call void @Cudd_RecursiveDeref(ptr noundef nonnull %0, ptr noundef %.031.us.us) #19
  %indvars.iv.next57 = add nuw nsw i64 %indvars.iv56, 1
  %exitcond60.not = icmp eq i64 %indvars.iv.next57, %wide.trip.count59
  br i1 %exitcond60.not, label %._crit_edge, label %.lr.ph.split.us.split.us, !llvm.loop !55

.lr.ph.split.us.split:                            ; preds = %.lr.ph.split.us, %.lr.ph.split.us.split
  %indvars.iv51 = phi i64 [ %indvars.iv.next52, %.lr.ph.split.us.split ], [ 0, %.lr.ph.split.us ]
  %.031.us = phi ptr [ %29, %.lr.ph.split.us.split ], [ %7, %.lr.ph.split.us ]
  %21 = getelementptr inbounds nuw ptr, ptr %3, i64 %indvars.iv51
  %22 = load ptr, ptr %21, align 8, !tbaa !25
  %23 = ptrtoint ptr %22 to i64
  %24 = trunc nuw nsw i64 %indvars.iv51 to i32
  %25 = lshr i32 %10, %24
  %26 = and i32 %25, 1
  %27 = zext nneg i32 %26 to i64
  %28 = xor i64 %23, %27
  %.026.us = inttoptr i64 %28 to ptr
  %29 = tail call ptr @Cudd_bddAnd(ptr noundef %0, ptr noundef %.031.us, ptr noundef %.026.us) #19
  tail call void @Cudd_Ref(ptr noundef %29) #19
  tail call void @Cudd_RecursiveDeref(ptr noundef %0, ptr noundef %.031.us) #19
  %indvars.iv.next52 = add nuw nsw i64 %indvars.iv51, 1
  %exitcond55.not = icmp eq i64 %indvars.iv.next52, %wide.trip.count59
  br i1 %exitcond55.not, label %._crit_edge, label %.lr.ph.split.us.split, !llvm.loop !55

.lr.ph.split:                                     ; preds = %.lr.ph
  br i1 %.not, label %.lr.ph.split.split.us, label %.lr.ph.split.split

.lr.ph.split.split.us:                            ; preds = %.lr.ph.split, %.lr.ph.split.split.us
  %indvars.iv46 = phi i64 [ %indvars.iv.next47, %.lr.ph.split.split.us ], [ 0, %.lr.ph.split ]
  %.031.us32 = phi ptr [ %41, %.lr.ph.split.split.us ], [ %7, %.lr.ph.split ]
  %30 = load ptr, ptr %9, align 8, !tbaa !38
  %31 = getelementptr inbounds nuw ptr, ptr %30, i64 %indvars.iv46
  %32 = load ptr, ptr %31, align 8, !tbaa !25
  %33 = ptrtoint ptr %32 to i64
  %34 = trunc nuw nsw i64 %indvars.iv46 to i32
  %35 = xor i32 %34, -1
  %36 = add nsw i32 %2, %35
  %37 = lshr i32 %10, %36
  %38 = and i32 %37, 1
  %39 = zext nneg i32 %38 to i64
  %40 = xor i64 %33, %39
  %.026.us35 = inttoptr i64 %40 to ptr
  %41 = tail call ptr @Cudd_bddAnd(ptr noundef nonnull %0, ptr noundef %.031.us32, ptr noundef %.026.us35) #19
  tail call void @Cudd_Ref(ptr noundef %41) #19
  tail call void @Cudd_RecursiveDeref(ptr noundef nonnull %0, ptr noundef %.031.us32) #19
  %indvars.iv.next47 = add nuw nsw i64 %indvars.iv46, 1
  %exitcond50.not = icmp eq i64 %indvars.iv.next47, %wide.trip.count59
  br i1 %exitcond50.not, label %._crit_edge, label %.lr.ph.split.split.us, !llvm.loop !55

.lr.ph.split.split:                               ; preds = %.lr.ph.split, %.lr.ph.split.split
  %indvars.iv = phi i64 [ %indvars.iv.next, %.lr.ph.split.split ], [ 0, %.lr.ph.split ]
  %.031 = phi ptr [ %52, %.lr.ph.split.split ], [ %7, %.lr.ph.split ]
  %42 = getelementptr inbounds nuw ptr, ptr %3, i64 %indvars.iv
  %43 = load ptr, ptr %42, align 8, !tbaa !25
  %44 = ptrtoint ptr %43 to i64
  %45 = trunc nuw nsw i64 %indvars.iv to i32
  %46 = xor i32 %45, -1
  %47 = add nsw i32 %2, %46
  %48 = lshr i32 %10, %47
  %49 = and i32 %48, 1
  %50 = zext nneg i32 %49 to i64
  %51 = xor i64 %44, %50
  %.026 = inttoptr i64 %51 to ptr
  %52 = tail call ptr @Cudd_bddAnd(ptr noundef %0, ptr noundef %.031, ptr noundef %.026) #19
  tail call void @Cudd_Ref(ptr noundef %52) #19
  tail call void @Cudd_RecursiveDeref(ptr noundef %0, ptr noundef %.031) #19
  %indvars.iv.next = add nuw nsw i64 %indvars.iv, 1
  %exitcond.not = icmp eq i64 %indvars.iv.next, %wide.trip.count59
  br i1 %exitcond.not, label %._crit_edge, label %.lr.ph.split.split, !llvm.loop !55

._crit_edge:                                      ; preds = %.lr.ph.split.split, %.lr.ph.split.split.us, %.lr.ph.split.us.split, %.lr.ph.split.us.split.us, %5
  %.0.lcssa = phi ptr [ %7, %5 ], [ %20, %.lr.ph.split.us.split.us ], [ %29, %.lr.ph.split.us.split ], [ %41, %.lr.ph.split.split.us ], [ %52, %.lr.ph.split.split ]
  tail call void @Cudd_Deref(ptr noundef %.0.lcssa) #19
  ret ptr %.0.lcssa
}